target datalayout = "e-m:e-p270:32:32-p271:32:32-p272:64:64-i64:64-i128:128-f80:128-n8:16:32:64-S128"
target triple = "x86_64-pc-linux-gnu"

%struct.pointf_s = type { double, double }
%struct.boxf = type { %struct.pointf_s, %struct.pointf_s }
%struct.Agobj_s = type { %struct.Agtag_s, ptr }
%struct.Agtag_s = type { i32, i64 }
%struct.Agraphinfo_t = type { %struct.Agrec_s, ptr, ptr, %struct.boxf, [4 x %struct.pointf_s], i8, i8, i8, i8, i32, double, double, i16, ptr, ptr, ptr, ptr, i32, ptr, ptr, ptr, ptr, i16, i16, i32, ptr, ptr, ptr, ptr, ptr, i32, ptr, ptr, %struct.nlist_t, ptr, ptr, i32, i32, i8, i8, i32, i32, i32, ptr, ptr, ptr, ptr, i8, i8, i8, i8, i8 }
%struct.Agrec_s = type { ptr, ptr }
%struct.nlist_t = type { ptr, i64 }
%struct.textlabel_t = type { ptr, ptr, ptr, i32, double, %struct.pointf_s, %struct.pointf_s, %struct.pointf_s, %union.anon.0, i8, i8, i8 }
%union.anon.0 = type { %struct.anon }
%struct.anon = type { ptr, i64 }

; Function Attrs: nounwind uwtable
define internal void @place_flip_graph_label(ptr noundef %0) #0 {
  %2 = alloca ptr, align 8
  %3 = alloca i32, align 4
  %4 = alloca %struct.pointf_s, align 8
  %5 = alloca %struct.pointf_s, align 8
  store ptr %0, ptr %2, align 8, !tbaa !3
  call void @llvm.lifetime.start.p0(i64 4, ptr %3) #12
  call void @llvm.lifetime.start.p0(i64 16, ptr %4) #12
  call void @llvm.lifetime.start.p0(i64 16, ptr %5) #12
  %6 = load ptr, ptr %2, align 8, !tbaa !3
  %7 = load ptr, ptr %2, align 8, !tbaa !3
  %8 = call ptr @agroot(ptr noundef %7)
  %9 = icmp ne ptr %6, %8
  br i1 %9, label %10, label %147

10:                                               ; preds = %1
  %11 = load ptr, ptr %2, align 8, !tbaa !3
  %12 = getelementptr inbounds nuw %struct.Agobj_s, ptr %11, i32 0, i32 1
  %13 = load ptr, ptr %12, align 8, !tbaa !10
  %14 = getelementptr inbounds nuw %struct.Agraphinfo_t, ptr %13, i32 0, i32 2
  %15 = load ptr, ptr %14, align 8, !tbaa !27
  %16 = icmp ne ptr %15, null
  br i1 %16, label %17, label %147

17:                                               ; preds = %10
  %18 = load ptr, ptr %2, align 8, !tbaa !3
  %19 = getelementptr inbounds nuw %struct.Agobj_s, ptr %18, i32 0, i32 1
  %20 = load ptr, ptr %19, align 8, !tbaa !10
  %21 = getelementptr inbounds nuw %struct.Agraphinfo_t, ptr %20, i32 0, i32 2
  %22 = load ptr, ptr %21, align 8, !tbaa !27
  %23 = getelementptr inbounds nuw %struct.textlabel_t, ptr %22, i32 0, i32 10
  %24 = load i8, ptr %23, align 1, !tbaa !51, !range !49, !noundef !50
  %25 = trunc i8 %24 to i1
  br i1 %25, label %147, label %26

26:                                               ; preds = %17
  %27 = load ptr, ptr %2, align 8, !tbaa !3
  %28 = getelementptr inbounds nuw %struct.Agobj_s, ptr %27, i32 0, i32 1
  %29 = load ptr, ptr %28, align 8, !tbaa !10
  %30 = getelementptr inbounds nuw %struct.Agraphinfo_t, ptr %29, i32 0, i32 50
  %31 = load i8, ptr %30, align 1, !tbaa !53
  %32 = sext i8 %31 to i32
  %33 = and i32 %32, 1
  %34 = icmp ne i32 %33, 0
  br i1 %34, label %35, label %53

35:                                               ; preds = %26
  %36 = load ptr, ptr %2, align 8, !tbaa !3
  %37 = getelementptr inbounds nuw %struct.Agobj_s, ptr %36, i32 0, i32 1
  %38 = load ptr, ptr %37, align 8, !tbaa !10
  %39 = getelementptr inbounds nuw %struct.Agraphinfo_t, ptr %38, i32 0, i32 4
  %40 = getelementptr inbounds [4 x %struct.pointf_s], ptr %39, i64 0, i64 1
  call void @llvm.memcpy.p0.p0.i64(ptr align 8 %5, ptr align 8 %40, i64 16, i1 false), !tbaa.struct !24
  %41 = load ptr, ptr %2, align 8, !tbaa !3
  %42 = getelementptr inbounds nuw %struct.Agobj_s, ptr %41, i32 0, i32 1
  %43 = load ptr, ptr %42, align 8, !tbaa !10
  %44 = getelementptr inbounds nuw %struct.Agraphinfo_t, ptr %43, i32 0, i32 3
  %45 = getelementptr inbounds nuw %struct.boxf, ptr %44, i32 0, i32 1
  %46 = getelementptr inbounds nuw %struct.pointf_s, ptr %45, i32 0, i32 0
  %47 = load double, ptr %46, align 8, !tbaa !54
  %48 = getelementptr inbounds nuw %struct.pointf_s, ptr %5, i32 0, i32 0
  %49 = load double, ptr %48, align 8, !tbaa !21
  %50 = fdiv double %49, 2.000000e+00
  %51 = fsub double %47, %50
  %52 = getelementptr inbounds nuw %struct.pointf_s, ptr %4, i32 0, i32 0
  store double %51, ptr %52, align 8, !tbaa !21
  br label %71

53:                                               ; preds = %26
  %54 = load ptr, ptr %2, align 8, !tbaa !3
  %55 = getelementptr inbounds nuw %struct.Agobj_s, ptr %54, i32 0, i32 1
  %56 = load ptr, ptr %55, align 8, !tbaa !10
  %57 = getelementptr inbounds nuw %struct.Agraphinfo_t, ptr %56, i32 0, i32 4
  %58 = getelementptr inbounds [4 x %struct.pointf_s], ptr %57, i64 0, i64 3
  call void @llvm.memcpy.p0.p0.i64(ptr align 8 %5, ptr align 8 %58, i64 16, i1 false), !tbaa.struct !24
  %59 = load ptr, ptr %2, align 8, !tbaa !3
  %60 = getelementptr inbounds nuw %struct.Agobj_s, ptr %59, i32 0, i32 1
  %61 = load ptr, ptr %60, align 8, !tbaa !10
  %62 = getelementptr inbounds nuw %struct.Agraphinfo_t, ptr %61, i32 0, i32 3
  %63 = getelementptr inbounds nuw %struct.boxf, ptr %62, i32 0, i32 0
  %64 = getelementptr inbounds nuw %struct.pointf_s, ptr %63, i32 0, i32 0
  %65 = load double, ptr %64, align 8, !tbaa !55
  %66 = getelementptr inbounds nuw %struct.pointf_s, ptr %5, i32 0, i32 0
  %67 = load double, ptr %66, align 8, !tbaa !21
  %68 = fdiv double %67, 2.000000e+00
  %69 = fadd double %65, %68
  %70 = getelementptr inbounds nuw %struct.pointf_s, ptr %4, i32 0, i32 0
  store double %69, ptr %70, align 8, !tbaa !21
  br label %71

71:                                               ; preds = %53, %35
  %72 = load ptr, ptr %2, align 8, !tbaa !3
  %73 = getelementptr inbounds nuw %struct.Agobj_s, ptr %72, i32 0, i32 1
  %74 = load ptr, ptr %73, align 8, !tbaa !10
  %75 = getelementptr inbounds nuw %struct.Agraphinfo_t, ptr %74, i32 0, i32 50
  %76 = load i8, ptr %75, align 1, !tbaa !53
  %77 = sext i8 %76 to i32
  %78 = and i32 %77, 4
  %79 = icmp ne i32 %78, 0
  br i1 %79, label %80, label %93

80:                                               ; preds = %71
  %81 = load ptr, ptr %2, align 8, !tbaa !3
  %82 = getelementptr inbounds nuw %struct.Agobj_s, ptr %81, i32 0, i32 1
  %83 = load ptr, ptr %82, align 8, !tbaa !10
  %84 = getelementptr inbounds nuw %struct.Agraphinfo_t, ptr %83, i32 0, i32 3
  %85 = getelementptr inbounds nuw %struct.boxf, ptr %84, i32 0, i32 0
  %86 = getelementptr inbounds nuw %struct.pointf_s, ptr %85, i32 0, i32 1
  %87 = load double, ptr %86, align 8, !tbaa !57
  %88 = getelementptr inbounds nuw %struct.pointf_s, ptr %5, i32 0, i32 1
  %89 = load double, ptr %88, align 8, !tbaa !23
  %90 = fdiv double %89, 2.000000e+00
  %91 = fadd double %87, %90
  %92 = getelementptr inbounds nuw %struct.pointf_s, ptr %4, i32 0, i32 1
  store double %91, ptr %92, align 8, !tbaa !23
  br label %134

93:                                               ; preds = %71
  %94 = load ptr, ptr %2, align 8, !tbaa !3
  %95 = getelementptr inbounds nuw %struct.Agobj_s, ptr %94, i32 0, i32 1
  %96 = load ptr, ptr %95, align 8, !tbaa !10
  %97 = getelementptr inbounds nuw %struct.Agraphinfo_t, ptr %96, i32 0, i32 50
  %98 = load i8, ptr %97, align 1, !tbaa !53
  %99 = sext i8 %98 to i32
  %100 = and i32 %99, 2
  %101 = icmp ne i32 %100, 0
  br i1 %101, label %102, label %115

102:                                              ; preds = %93
  %103 = load ptr, ptr %2, align 8, !tbaa !3
  %104 = getelementptr inbounds nuw %struct.Agobj_s, ptr %103, i32 0, i32 1
  %105 = load ptr, ptr %104, align 8, !tbaa !10
  %106 = getelementptr inbounds nuw %struct.Agraphinfo_t, ptr %105, i32 0, i32 3
  %107 = getelementptr inbounds nuw %struct.boxf, ptr %106, i32 0, i32 1
  %108 = getelementptr inbounds nuw %struct.pointf_s, ptr %107, i32 0, i32 1
  %109 = load double, ptr %108, align 8, !tbaa !56
  %110 = getelementptr inbounds nuw %struct.pointf_s, ptr %5, i32 0, i32 1
  %111 = load double, ptr %110, align 8, !tbaa !23
  %112 = fdiv double %111, 2.000000e+00
  %113 = fsub double %109, %112
  %114 = getelementptr inbounds nuw %struct.pointf_s, ptr %4, i32 0, i32 1
  store double %113, ptr %114, align 8, !tbaa !23
  br label %133

115:                                              ; preds = %93
  %116 = load ptr, ptr %2, align 8, !tbaa !3
  %117 = getelementptr inbounds nuw %struct.Agobj_s, ptr %116, i32 0, i32 1
  %118 = load ptr, ptr %117, align 8, !tbaa !10
  %119 = getelementptr inbounds nuw %struct.Agraphinfo_t, ptr %118, i32 0, i32 3
  %120 = getelementptr inbounds nuw %struct.boxf, ptr %119, i32 0, i32 0
  %121 = getelementptr inbounds nuw %struct.pointf_s, ptr %120, i32 0, i32 1
  %122 = load double, ptr %121, align 8, !tbaa !57
  %123 = load ptr, ptr %2, align 8, !tbaa !3
  %124 = getelementptr inbounds nuw %struct.Agobj_s, ptr %123, i32 0, i32 1
  %125 = load ptr, ptr %124, align 8, !tbaa !10
  %126 = getelementptr inbounds nuw %struct.Agraphinfo_t, ptr %125, i32 0, i32 3
  %127 = getelementptr inbounds nuw %struct.boxf, ptr %126, i32 0, i32 1
  %128 = getelementptr inbounds nuw %struct.pointf_s, ptr %127, i32 0, i32 1
  %129 = load double, ptr %128, align 8, !tbaa !56
  %130 = fadd double %122, %129
  %131 = fdiv double %130, 2.000000e+00
  %132 = getelementptr inbounds nuw %struct.pointf_s, ptr %4, i32 0, i32 1
  store double %131, ptr %132, align 8, !tbaa !23
  br label %133

133:                                              ; preds = %115, %102
  br label %134

134:                                              ; preds = %133, %80
  %135 = load ptr, ptr %2, align 8, !tbaa !3
  %136 = getelementptr inbounds nuw %struct.Agobj_s, ptr %135, i32 0, i32 1
  %137 = load ptr, ptr %136, align 8, !tbaa !10
  %138 = getelementptr inbounds nuw %struct.Agraphinfo_t, ptr %137, i32 0, i32 2
  %139 = load ptr, ptr %138, align 8, !tbaa !27
  %140 = getelementptr inbounds nuw %struct.textlabel_t, ptr %139, i32 0, i32 7
  call void @llvm.memcpy.p0.p0.i64(ptr align 8 %140, ptr align 8 %4, i64 16, i1 false), !tbaa.struct !24
  %141 = load ptr, ptr %2, align 8, !tbaa !3
  %142 = getelementptr inbounds nuw %struct.Agobj_s, ptr %141, i32 0, i32 1
  %143 = load ptr, ptr %142, align 8, !tbaa !10
  %144 = getelementptr inbounds nuw %struct.Agraphinfo_t, ptr %143, i32 0, i32 2
  %145 = load ptr, ptr %144, align 8, !tbaa !27
  %146 = getelementptr inbounds nuw %struct.textlabel_t, ptr %145, i32 0, i32 10
  store i8 1, ptr %146, align 1, !tbaa !51
  br label %147

147:                                              ; preds = %134, %17, %10, %1
  store i32 1, ptr %3, align 4, !tbaa !8
  br label %148

148:                                              ; preds = %166, %147
  %149 = load i32, ptr %3, align 4, !tbaa !8
  %150 = load ptr, ptr %2, align 8, !tbaa !3
  %151 = getelementptr inbounds nuw %struct.Agobj_s, ptr %150, i32 0, i32 1
  %152 = load ptr, ptr %151, align 8, !tbaa !10
  %153 = getelementptr inbounds nuw %struct.Agraphinfo_t, ptr %152, i32 0, i32 24
  %154 = load i32, ptr %153, align 4, !tbaa !43
  %155 = icmp sle i32 %149, %154
  br i1 %155, label %156, label %169

156:                                              ; preds = %148
  %157 = load ptr, ptr %2, align 8, !tbaa !3
  %158 = getelementptr inbounds nuw %struct.Agobj_s, ptr %157, i32 0, i32 1
  %159 = load ptr, ptr %158, align 8, !tbaa !10
  %160 = getelementptr inbounds nuw %struct.Agraphinfo_t, ptr %159, i32 0, i32 25
  %161 = load ptr, ptr %160, align 8, !tbaa !44
  %162 = load i32, ptr %3, align 4, !tbaa !8
  %163 = sext i32 %162 to i64
  %164 = getelementptr inbounds ptr, ptr %161, i64 %163
  %165 = load ptr, ptr %164, align 8, !tbaa !3
  call void @place_flip_graph_label(ptr noundef %165)
  br label %166

166:                                              ; preds = %156
  %167 = load i32, ptr %3, align 4, !tbaa !8
  %168 = add nsw i32 %167, 1
  store i32 %168, ptr %3, align 4, !tbaa !8
  br label %148, !llvm.loop !60

169:                                              ; preds = %148
  call void @llvm.lifetime.end.p0(i64 16, ptr %5) #12
  call void @llvm.lifetime.end.p0(i64 16, ptr %4) #12
  call void @llvm.lifetime.end.p0(i64 4, ptr %3) #12
  ret void
}