; Function Attrs: nounwind uwtable
define internal fastcc void @place_flip_graph_label(ptr noundef %0) unnamed_addr #0 {
  %2 = tail call ptr @agroot(ptr noundef %0) #18
  %.not = icmp eq ptr %0, %2
  %.phi.trans.insert = getelementptr inbounds nuw i8, ptr %0, i64 16
  %.pre = load ptr, ptr %.phi.trans.insert, align 8, !tbaa !3
  br i1 %.not, label %._crit_edge37, label %3

3:                                                ; preds = %1
  %4 = getelementptr inbounds nuw i8, ptr %.pre, i64 24
  %5 = load ptr, ptr %4, align 8, !tbaa !18
  %.not29 = icmp eq ptr %5, null
  br i1 %.not29, label %._crit_edge37, label %6

6:                                                ; preds = %3
  %7 = getelementptr inbounds nuw i8, ptr %5, i64 105
  %8 = load i8, ptr %7, align 1, !tbaa !52, !range !54, !noundef !55
  %9 = trunc nuw i8 %8 to i1
  br i1 %9, label %._crit_edge37, label %10

10:                                               ; preds = %6
  %11 = getelementptr inbounds nuw i8, ptr %.pre, i64 395
  %12 = load i8, ptr %11, align 1, !tbaa !122
  %13 = and i8 %12, 1
  %.not30 = icmp eq i8 %13, 0
  br i1 %.not30, label %20, label %14

14:                                               ; preds = %10
  %15 = getelementptr inbounds nuw i8, ptr %.pre, i64 80
  %.sroa.0.0.copyload = load double, ptr %15, align 8, !tbaa !12
  %.sroa.6.0..sroa_idx = getelementptr inbounds nuw i8, ptr %.pre, i64 88
  %16 = getelementptr inbounds nuw i8, ptr %.pre, i64 48
  %17 = load double, ptr %16, align 8, !tbaa !123
  %18 = fmul double %.sroa.0.0.copyload, 5.000000e-01
  %19 = fsub double %17, %18
  br label %26

20:                                               ; preds = %10
  %21 = getelementptr inbounds nuw i8, ptr %.pre, i64 112
  %.sroa.0.0.copyload2 = load double, ptr %21, align 8, !tbaa !12
  %.sroa.6.0..sroa_idx3 = getelementptr inbounds nuw i8, ptr %.pre, i64 120
  %22 = getelementptr inbounds nuw i8, ptr %.pre, i64 32
  %23 = load double, ptr %22, align 8, !tbaa !124
  %24 = fmul double %.sroa.0.0.copyload2, 5.000000e-01
  %25 = fadd double %23, %24
  br label %26

26:                                               ; preds = %20, %14
  %.sroa.06.0 = phi double [ %19, %14 ], [ %25, %20 ]
  %.sroa.6.0.in = phi ptr [ %.sroa.6.0..sroa_idx, %14 ], [ %.sroa.6.0..sroa_idx3, %20 ]
  %.sroa.6.0 = load double, ptr %.sroa.6.0.in, align 8, !tbaa !12
  %27 = and i8 %12, 4
  %.not31 = icmp eq i8 %27, 0
  br i1 %.not31, label %33, label %28

28:                                               ; preds = %26
  %29 = getelementptr inbounds nuw i8, ptr %.pre, i64 40
  %30 = load double, ptr %29, align 8, !tbaa !126
  %31 = fmul double %.sroa.6.0, 5.000000e-01
  %32 = fadd double %31, %30
  br label %47

33:                                               ; preds = %26
  %34 = and i8 %12, 2
  %.not32 = icmp eq i8 %34, 0
  br i1 %.not32, label %40, label %35

35:                                               ; preds = %33
  %36 = getelementptr inbounds nuw i8, ptr %.pre, i64 56
  %37 = load double, ptr %36, align 8, !tbaa !125
  %38 = fmul double %.sroa.6.0, 5.000000e-01
  %39 = fsub double %37, %38
  br label %47

40:                                               ; preds = %33
  %41 = getelementptr inbounds nuw i8, ptr %.pre, i64 40
  %42 = load double, ptr %41, align 8, !tbaa !126
  %43 = getelementptr inbounds nuw i8, ptr %.pre, i64 56
  %44 = load double, ptr %43, align 8, !tbaa !125
  %45 = fadd double %42, %44
  %46 = fmul double %45, 5.000000e-01
  br label %47

47:                                               ; preds = %35, %40, %28
  %.sroa.5.0 = phi double [ %32, %28 ], [ %39, %35 ], [ %46, %40 ]
  %48 = getelementptr inbounds nuw i8, ptr %5, i64 72
  store double %.sroa.06.0, ptr %48, align 8, !tbaa !12
  %.sroa.5.0..sroa_idx = getelementptr inbounds nuw i8, ptr %5, i64 80
  store double %.sroa.5.0, ptr %.sroa.5.0..sroa_idx, align 8, !tbaa !12
  store i8 1, ptr %7, align 1, !tbaa !52
  br label %._crit_edge37

._crit_edge37:                                    ; preds = %1, %47, %6, %3
  %49 = getelementptr inbounds nuw i8, ptr %0, i64 16
  %50 = getelementptr inbounds nuw i8, ptr %.pre, i64 236
  %51 = load i32, ptr %50, align 4, !tbaa !36
  %.not3334 = icmp slt i32 %51, 1
  br i1 %.not3334, label %._crit_edge, label %.lr.ph

.lr.ph:                                           ; preds = %._crit_edge37, %.lr.ph
  %indvars.iv = phi i64 [ %indvars.iv.next, %.lr.ph ], [ 1, %._crit_edge37 ]
  %52 = phi ptr [ %57, %.lr.ph ], [ %.pre, %._crit_edge37 ]
  %53 = getelementptr inbounds nuw i8, ptr %52, i64 240
  %54 = load ptr, ptr %53, align 8, !tbaa !37
  %55 = getelementptr inbounds nuw ptr, ptr %54, i64 %indvars.iv
  %56 = load ptr, ptr %55, align 8, !tbaa !38
  tail call fastcc void @place_flip_graph_label(ptr noundef %56)
  %indvars.iv.next = add nuw nsw i64 %indvars.iv, 1
  %57 = load ptr, ptr %49, align 8, !tbaa !3
  %58 = getelementptr inbounds nuw i8, ptr %57, i64 236
  %59 = load i32, ptr %58, align 4, !tbaa !36
  %60 = sext i32 %59 to i64
  %.not33.not = icmp slt i64 %indvars.iv, %60
  br i1 %.not33.not, label %.lr.ph, label %._crit_edge, !llvm.loop !145

._crit_edge:                                      ; preds = %.lr.ph, %._crit_edge37
  ret void
}